; Function Attrs: nounwind sspstrong uwtable
define internal i64 @sock_s_unpack_sockaddr_in(i64 %0, i64 noundef %1) #0 {
  %3 = alloca i64, align 8
  store i64 %1, ptr %3, align 8, !tbaa !10
  %4 = call ptr @rsock_sockaddr_string_value_ptr(ptr noundef nonnull %3) #16
  %5 = load i64, ptr %3, align 8, !tbaa !10
  %6 = inttoptr i64 %5 to ptr
  %7 = getelementptr inbounds nuw i8, ptr %6, i64 16
  %8 = load i64, ptr %7, align 8, !tbaa !17
  %9 = icmp slt i64 %8, 2
  br i1 %9, label %10, label %12

10:                                               ; preds = %2
  %11 = load i64, ptr @rb_eArgError, align 8, !tbaa !10
  call void (i64, ptr, ...) @rb_raise(i64 noundef %11, ptr noundef nonnull @.str.62) #18
  unreachable

12:                                               ; preds = %2
  %13 = load i16, ptr %4, align 2, !tbaa !35
  switch i16 %13, label %14 [
    i16 2, label %16
    i16 10, label %16
  ]

14:                                               ; preds = %12
  %15 = load i64, ptr @rb_eArgError, align 8, !tbaa !10
  call void (i64, ptr, ...) @rb_raise(i64 noundef %15, ptr noundef nonnull @.str.63) #18
  unreachable

16:                                               ; preds = %12, %12
  %.not.i.i = icmp samesign ult i64 %8, 2147483648
  br i1 %.not.i.i, label %RSTRING_LENINT.exit, label %17

17:                                               ; preds = %16
  call void @rb_out_of_int(i64 noundef %8) #20
  unreachable

RSTRING_LENINT.exit:                              ; preds = %16
  %18 = getelementptr inbounds nuw i8, ptr %4, i64 2
  %19 = trunc nuw i64 %8 to i32
  %20 = call i64 @rsock_make_ipaddr(ptr noundef nonnull %4, i32 noundef %19) #16
  %21 = load i16, ptr %18, align 2, !tbaa !96
  %rev.i = call noundef i16 @llvm.bswap.i16(i16 %21)
  %22 = zext i16 %rev.i to i64
  %23 = shl nuw nsw i64 %22, 1
  %24 = or disjoint i64 %23, 1
  %25 = call i64 @rb_assoc_new(i64 noundef %24, i64 noundef %20) #16
  ret i64 %25
}